; Function Attrs: mustprogress uwtable
define noundef ptr @_Z31grpc_fill_alpn_protocol_stringsPm(ptr noundef %0) local_unnamed_addr #4 personality ptr @__gxx_personality_v0 {
  %2 = alloca %"class.absl::lts_20240722::log_internal::LogMessageFatal", align 8
  %.not.i = icmp eq ptr %0, null
  br i1 %.not.i, label %8, label %3, !prof !59

3:                                                ; preds = %1
  %4 = tail call noundef i64 @_Z29grpc_chttp2_num_alpn_versionsv()
  store i64 %4, ptr %0, align 8, !tbaa !15
  %5 = shl i64 %4, 3
  %6 = tail call ptr @gpr_malloc(i64 noundef %5)
  %7 = load i64, ptr %0, align 8, !tbaa !15
  %.not = icmp eq i64 %7, 0
  br i1 %.not, label %._crit_edge, label %.lr.ph

8:                                                ; preds = %1
  %9 = tail call noundef nonnull ptr @_ZN4absl12lts_2024072212log_internal17MakeCheckOpStringIPKvS4_EEPNSt7__cxx1112basic_stringIcSt11char_traitsIcESaIcEEET_T0_PKc(ptr noundef null, ptr noundef null, ptr noundef nonnull @.str.8)
  call void @llvm.lifetime.start.p0(i64 16, ptr nonnull %2) #30
  %10 = load ptr, ptr %9, align 8, !tbaa !9
  %11 = getelementptr inbounds nuw i8, ptr %9, i64 8
  %12 = load i64, ptr %11, align 8, !tbaa !13
  call void @_ZN4absl12lts_2024072212log_internal15LogMessageFatalC1EPKciSt17basic_string_viewIcSt11char_traitsIcEE(ptr noundef nonnull align 8 dereferenceable(16) %2, ptr noundef nonnull @.str, i32 noundef 193, i64 %12, ptr %10) #33
  call void @_ZN4absl12lts_2024072212log_internal15LogMessageFatalD1Ev(ptr noundef nonnull align 8 dereferenceable(16) %2) #35
  unreachable

._crit_edge:                                      ; preds = %.lr.ph, %3
  ret ptr %6

.lr.ph:                                           ; preds = %3, %.lr.ph
  %.011 = phi i64 [ %15, %.lr.ph ], [ 0, %3 ]
  %13 = tail call noundef ptr @_Z34grpc_chttp2_get_alpn_version_indexm(i64 noundef %.011)
  %14 = getelementptr inbounds nuw ptr, ptr %6, i64 %.011
  store ptr %13, ptr %14, align 8, !tbaa !7
  %15 = add nuw i64 %.011, 1
  %16 = load i64, ptr %0, align 8, !tbaa !15
  %17 = icmp ult i64 %15, %16
  br i1 %17, label %.lr.ph, label %._crit_edge, !llvm.loop !60
}